; ModuleID = '46/2371.c'
source_filename = "46/2371.c"
target datalayout = "e-m:e-p270:32:32-p271:32:32-p272:64:64-i64:64-f80:128-n8:16:32:64-S128"
target triple = "x86_64-pc-linux-gnu"

@.str = private unnamed_addr constant [5 x i8] c"%d%d\00", align 1
@.str.1 = private unnamed_addr constant [3 x i8] c"%d\00", align 1
@.str.2 = private unnamed_addr constant [4 x i8] c"%d\0A\00", align 1

; Function Attrs: noinline nounwind uwtable
define dso_local i32 @main() #0 {
  %1 = alloca i32, align 4
  %2 = alloca i32, align 4
  %3 = alloca i32, align 4
  %4 = alloca [100 x [100 x i32]], align 16
  %5 = alloca i32, align 4
  %6 = alloca i32, align 4
  %7 = alloca i32, align 4
  %8 = alloca i32, align 4
  %9 = alloca i32, align 4
  %10 = alloca i32, align 4
  %11 = alloca i32, align 4
  %12 = alloca i32, align 4
  store i32 0, i32* %1, align 4
  %13 = call i32 (i8*, ...) @__isoc99_scanf(i8* getelementptr inbounds ([5 x i8], [5 x i8]* @.str, i64 0, i64 0), i32* %2, i32* %3)
  store i32 1, i32* %6, align 4
  br label %14

14:                                               ; preds = %35, %0
  %15 = load i32, i32* %6, align 4
  %16 = load i32, i32* %2, align 4
  %17 = icmp sle i32 %15, %16
  br i1 %17, label %18, label %38

18:                                               ; preds = %14
  store i32 1, i32* %7, align 4
  br label %19

19:                                               ; preds = %31, %18
  %20 = load i32, i32* %7, align 4
  %21 = load i32, i32* %3, align 4
  %22 = icmp sle i32 %20, %21
  br i1 %22, label %23, label %34

23:                                               ; preds = %19
  %24 = load i32, i32* %6, align 4
  %25 = sext i32 %24 to i64
  %26 = getelementptr inbounds [100 x [100 x i32]], [100 x [100 x i32]]* %4, i64 0, i64 %25
  %27 = load i32, i32* %7, align 4
  %28 = sext i32 %27 to i64
  %29 = getelementptr inbounds [100 x i32], [100 x i32]* %26, i64 0, i64 %28
  %30 = call i32 (i8*, ...) @__isoc99_scanf(i8* getelementptr inbounds ([3 x i8], [3 x i8]* @.str.1, i64 0, i64 0), i32* %29)
  br label %31

31:                                               ; preds = %23
  %32 = load i32, i32* %7, align 4
  %33 = add nsw i32 %32, 1
  store i32 %33, i32* %7, align 4
  br label %19

34:                                               ; preds = %19
  br label %35

35:                                               ; preds = %34
  %36 = load i32, i32* %6, align 4
  %37 = add nsw i32 %36, 1
  store i32 %37, i32* %6, align 4
  br label %14

38:                                               ; preds = %14
  %39 = load i32, i32* %2, align 4
  %40 = load i32, i32* %3, align 4
  %41 = icmp sle i32 %39, %40
  br i1 %41, label %42, label %47

42:                                               ; preds = %38
  %43 = load i32, i32* %2, align 4
  %44 = sdiv i32 %43, 2
  store i32 %44, i32* %5, align 4
  %45 = load i32, i32* %2, align 4
  %46 = srem i32 %45, 2
  store i32 %46, i32* %11, align 4
  store i32 1, i32* %12, align 4
  br label %52

47:                                               ; preds = %38
  %48 = load i32, i32* %3, align 4
  %49 = sdiv i32 %48, 2
  store i32 %49, i32* %5, align 4
  %50 = load i32, i32* %3, align 4
  %51 = srem i32 %50, 2
  store i32 %51, i32* %11, align 4
  store i32 2, i32* %12, align 4
  br label %52

52:                                               ; preds = %47, %42
  store i32 1, i32* %6, align 4
  br label %53

53:                                               ; preds = %148, %52
  %54 = load i32, i32* %6, align 4
  %55 = load i32, i32* %5, align 4
  %56 = icmp sle i32 %54, %55
  br i1 %56, label %57, label %151

57:                                               ; preds = %53
  %58 = load i32, i32* %6, align 4
  store i32 %58, i32* %7, align 4
  br label %59

59:                                               ; preds = %74, %57
  %60 = load i32, i32* %7, align 4
  %61 = load i32, i32* %3, align 4
  %62 = load i32, i32* %6, align 4
  %63 = sub nsw i32 %61, %62
  %64 = icmp sle i32 %60, %63
  br i1 %64, label %65, label %77

65:                                               ; preds = %59
  %66 = load i32, i32* %6, align 4
  %67 = sext i32 %66 to i64
  %68 = getelementptr inbounds [100 x [100 x i32]], [100 x [100 x i32]]* %4, i64 0, i64 %67
  %69 = load i32, i32* %7, align 4
  %70 = sext i32 %69 to i64
  %71 = getelementptr inbounds [100 x i32], [100 x i32]* %68, i64 0, i64 %70
  %72 = load i32, i32* %71, align 4
  %73 = call i32 (i8*, ...) @printf(i8* getelementptr inbounds ([4 x i8], [4 x i8]* @.str.2, i64 0, i64 0), i32 %72)
  br label %74

74:                                               ; preds = %65
  %75 = load i32, i32* %7, align 4
  %76 = add nsw i32 %75, 1
  store i32 %76, i32* %7, align 4
  br label %59

77:                                               ; preds = %59
  %78 = load i32, i32* %6, align 4
  store i32 %78, i32* %8, align 4
  br label %79

79:                                               ; preds = %97, %77
  %80 = load i32, i32* %8, align 4
  %81 = load i32, i32* %2, align 4
  %82 = load i32, i32* %6, align 4
  %83 = sub nsw i32 %81, %82
  %84 = icmp sle i32 %80, %83
  br i1 %84, label %85, label %100

85:                                               ; preds = %79
  %86 = load i32, i32* %8, align 4
  %87 = sext i32 %86 to i64
  %88 = getelementptr inbounds [100 x [100 x i32]], [100 x [100 x i32]]* %4, i64 0, i64 %87
  %89 = load i32, i32* %3, align 4
  %90 = add nsw i32 %89, 1
  %91 = load i32, i32* %6, align 4
  %92 = sub nsw i32 %90, %91
  %93 = sext i32 %92 to i64
  %94 = getelementptr inbounds [100 x i32], [100 x i32]* %88, i64 0, i64 %93
  %95 = load i32, i32* %94, align 4
  %96 = call i32 (i8*, ...) @printf(i8* getelementptr inbounds ([4 x i8], [4 x i8]* @.str.2, i64 0, i64 0), i32 %95)
  br label %97

97:                                               ; preds = %85
  %98 = load i32, i32* %8, align 4
  %99 = add nsw i32 %98, 1
  store i32 %99, i32* %8, align 4
  br label %79

100:                                              ; preds = %79
  %101 = load i32, i32* %3, align 4
  %102 = load i32, i32* %6, align 4
  %103 = sub nsw i32 %101, %102
  %104 = add nsw i32 %103, 1
  store i32 %104, i32* %9, align 4
  br label %105

105:                                              ; preds = %122, %100
  %106 = load i32, i32* %9, align 4
  %107 = load i32, i32* %6, align 4
  %108 = add nsw i32 %107, 1
  %109 = icmp sge i32 %106, %108
  br i1 %109, label %110, label %125

110:                                              ; preds = %105
  %111 = load i32, i32* %2, align 4
  %112 = add nsw i32 %111, 1
  %113 = load i32, i32* %6, align 4
  %114 = sub nsw i32 %112, %113
  %115 = sext i32 %114 to i64
  %116 = getelementptr inbounds [100 x [100 x i32]], [100 x [100 x i32]]* %4, i64 0, i64 %115
  %117 = load i32, i32* %9, align 4
  %118 = sext i32 %117 to i64
  %119 = getelementptr inbounds [100 x i32], [100 x i32]* %116, i64 0, i64 %118
  %120 = load i32, i32* %119, align 4
  %121 = call i32 (i8*, ...) @printf(i8* getelementptr inbounds ([4 x i8], [4 x i8]* @.str.2, i64 0, i64 0), i32 %120)
  br label %122

122:                                              ; preds = %110
  %123 = load i32, i32* %9, align 4
  %124 = add nsw i32 %123, -1
  store i32 %124, i32* %9, align 4
  br label %105

125:                                              ; preds = %105
  %126 = load i32, i32* %2, align 4
  %127 = add nsw i32 %126, 1
  %128 = load i32, i32* %6, align 4
  %129 = sub nsw i32 %127, %128
  store i32 %129, i32* %10, align 4
  br label %130

130:                                              ; preds = %144, %125
  %131 = load i32, i32* %10, align 4
  %132 = load i32, i32* %6, align 4
  %133 = add nsw i32 %132, 1
  %134 = icmp sge i32 %131, %133
  br i1 %134, label %135, label %147

135:                                              ; preds = %130
  %136 = load i32, i32* %10, align 4
  %137 = sext i32 %136 to i64
  %138 = getelementptr inbounds [100 x [100 x i32]], [100 x [100 x i32]]* %4, i64 0, i64 %137
  %139 = load i32, i32* %6, align 4
  %140 = sext i32 %139 to i64
  %141 = getelementptr inbounds [100 x i32], [100 x i32]* %138, i64 0, i64 %140
  %142 = load i32, i32* %141, align 4
  %143 = call i32 (i8*, ...) @printf(i8* getelementptr inbounds ([4 x i8], [4 x i8]* @.str.2, i64 0, i64 0), i32 %142)
  br label %144

144:                                              ; preds = %135
  %145 = load i32, i32* %10, align 4
  %146 = add nsw i32 %145, -1
  store i32 %146, i32* %10, align 4
  br label %130

147:                                              ; preds = %130
  br label %148

148:                                              ; preds = %147
  %149 = load i32, i32* %6, align 4
  %150 = add nsw i32 %149, 1
  store i32 %150, i32* %6, align 4
  br label %53

151:                                              ; preds = %53
  %152 = load i32, i32* %11, align 4
  %153 = icmp eq i32 %152, 1
  br i1 %153, label %154, label %215

154:                                              ; preds = %151
  %155 = load i32, i32* %12, align 4
  %156 = icmp eq i32 %155, 1
  br i1 %156, label %157, label %184

157:                                              ; preds = %154
  %158 = load i32, i32* %2, align 4
  %159 = add nsw i32 %158, 1
  %160 = sdiv i32 %159, 2
  store i32 %160, i32* %6, align 4
  br label %161

161:                                              ; preds = %180, %157
  %162 = load i32, i32* %6, align 4
  %163 = load i32, i32* %3, align 4
  %164 = load i32, i32* %2, align 4
  %165 = sub nsw i32 %164, 1
  %166 = sdiv i32 %165, 2
  %167 = sub nsw i32 %163, %166
  %168 = icmp sle i32 %162, %167
  br i1 %168, label %169, label %183

169:                                              ; preds = %161
  %170 = load i32, i32* %2, align 4
  %171 = add nsw i32 %170, 1
  %172 = sdiv i32 %171, 2
  %173 = sext i32 %172 to i64
  %174 = getelementptr inbounds [100 x [100 x i32]], [100 x [100 x i32]]* %4, i64 0, i64 %173
  %175 = load i32, i32* %6, align 4
  %176 = sext i32 %175 to i64
  %177 = getelementptr inbounds [100 x i32], [100 x i32]* %174, i64 0, i64 %176
  %178 = load i32, i32* %177, align 4
  %179 = call i32 (i8*, ...) @printf(i8* getelementptr inbounds ([4 x i8], [4 x i8]* @.str.2, i64 0, i64 0), i32 %178)
  br label %180

180:                                              ; preds = %169
  %181 = load i32, i32* %6, align 4
  %182 = add nsw i32 %181, 1
  store i32 %182, i32* %6, align 4
  br label %161

183:                                              ; preds = %161
  br label %184

184:                                              ; preds = %183, %154
  %185 = load i32, i32* %12, align 4
  %186 = icmp eq i32 %185, 2
  br i1 %186, label %187, label %214

187:                                              ; preds = %184
  %188 = load i32, i32* %3, align 4
  %189 = add nsw i32 %188, 1
  %190 = sdiv i32 %189, 2
  store i32 %190, i32* %6, align 4
  br label %191

191:                                              ; preds = %210, %187
  %192 = load i32, i32* %6, align 4
  %193 = load i32, i32* %2, align 4
  %194 = load i32, i32* %3, align 4
  %195 = sub nsw i32 %194, 1
  %196 = sdiv i32 %195, 2
  %197 = sub nsw i32 %193, %196
  %198 = icmp sle i32 %192, %197
  br i1 %198, label %199, label %213

199:                                              ; preds = %191
  %200 = load i32, i32* %6, align 4
  %201 = sext i32 %200 to i64
  %202 = getelementptr inbounds [100 x [100 x i32]], [100 x [100 x i32]]* %4, i64 0, i64 %201
  %203 = load i32, i32* %3, align 4
  %204 = add nsw i32 %203, 1
  %205 = sdiv i32 %204, 2
  %206 = sext i32 %205 to i64
  %207 = getelementptr inbounds [100 x i32], [100 x i32]* %202, i64 0, i64 %206
  %208 = load i32, i32* %207, align 4
  %209 = call i32 (i8*, ...) @printf(i8* getelementptr inbounds ([4 x i8], [4 x i8]* @.str.2, i64 0, i64 0), i32 %208)
  br label %210

210:                                              ; preds = %199
  %211 = load i32, i32* %6, align 4
  %212 = add nsw i32 %211, 1
  store i32 %212, i32* %6, align 4
  br label %191

213:                                              ; preds = %191
  br label %214

214:                                              ; preds = %213, %184
  br label %215

215:                                              ; preds = %214, %151
  ret i32 0
}

declare dso_local i32 @__isoc99_scanf(i8*, ...) #1

declare dso_local i32 @printf(i8*, ...) #1


!llvm.module.flags = !{!0}
!llvm.ident = !{!1}

!0 = !{i32 1, !"wchar_size", i32 4}
!1 = !{!"clang version 10.0.0-4ubuntu1 "}
